; ModuleID = '22/370.c'
source_filename = "22/370.c"
target datalayout = "e-m:e-p270:32:32-p271:32:32-p272:64:64-i64:64-f80:128-n8:16:32:64-S128"
target triple = "x86_64-pc-linux-gnu"

@.str = private unnamed_addr constant [3 x i8] c"%d\00", align 1
@.str.1 = private unnamed_addr constant [3 x i8] c"No\00", align 1

; Function Attrs: noinline nounwind uwtable
define dso_local i32 @main() #0 {
  %1 = alloca i32, align 4
  %2 = alloca i32, align 4
  %3 = alloca i32, align 4
  %4 = alloca i32, align 4
  %5 = alloca i32, align 4
  %6 = alloca i32, align 4
  %7 = alloca i32, align 4
  %8 = alloca i32, align 4
  %9 = alloca i32, align 4
  %10 = alloca [1000 x i32], align 16
  %11 = alloca [10000 x i8], align 16
  store i32 0, i32* %1, align 4
  store i32 0, i32* %2, align 4
  store i32 0, i32* %3, align 4
  store i32 0, i32* %4, align 4
  store i32 0, i32* %8, align 4
  %12 = bitcast [1000 x i32]* %10 to i8*
  call void @llvm.memset.p0i8.i64(i8* align 16 %12, i8 0, i64 4000, i1 false)
  %13 = getelementptr inbounds [10000 x i8], [10000 x i8]* %11, i64 0, i64 0
  %14 = call i32 (i8*, ...) bitcast (i32 (...)* @gets to i32 (i8*, ...)*)(i8* %13)
  br label %15

15:                                               ; preds = %71, %0
  %16 = load i32, i32* %2, align 4
  %17 = sext i32 %16 to i64
  %18 = getelementptr inbounds [10000 x i8], [10000 x i8]* %11, i64 0, i64 %17
  %19 = load i8, i8* %18, align 1
  %20 = sext i8 %19 to i32
  %21 = icmp ne i32 %20, 0
  br i1 %21, label %22, label %74

22:                                               ; preds = %15
  %23 = load i32, i32* %2, align 4
  %24 = sext i32 %23 to i64
  %25 = getelementptr inbounds [10000 x i8], [10000 x i8]* %11, i64 0, i64 %24
  %26 = load i8, i8* %25, align 1
  %27 = sext i8 %26 to i32
  %28 = icmp sle i32 %27, 57
  br i1 %28, label %29, label %68

29:                                               ; preds = %22
  %30 = load i32, i32* %2, align 4
  %31 = sext i32 %30 to i64
  %32 = getelementptr inbounds [10000 x i8], [10000 x i8]* %11, i64 0, i64 %31
  %33 = load i8, i8* %32, align 1
  %34 = sext i8 %33 to i32
  %35 = icmp sge i32 %34, 48
  br i1 %35, label %36, label %68

36:                                               ; preds = %29
  %37 = load i32, i32* %4, align 4
  %38 = icmp eq i32 %37, 0
  br i1 %38, label %39, label %51

39:                                               ; preds = %36
  %40 = load i32, i32* %2, align 4
  %41 = sext i32 %40 to i64
  %42 = getelementptr inbounds [10000 x i8], [10000 x i8]* %11, i64 0, i64 %41
  %43 = load i8, i8* %42, align 1
  %44 = sext i8 %43 to i32
  %45 = sub nsw i32 %44, 48
  %46 = load i32, i32* %3, align 4
  %47 = sext i32 %46 to i64
  %48 = getelementptr inbounds [1000 x i32], [1000 x i32]* %10, i64 0, i64 %47
  store i32 %45, i32* %48, align 4
  %49 = load i32, i32* %4, align 4
  %50 = add nsw i32 %49, 1
  store i32 %50, i32* %4, align 4
  br label %67

51:                                               ; preds = %36
  %52 = load i32, i32* %3, align 4
  %53 = sext i32 %52 to i64
  %54 = getelementptr inbounds [1000 x i32], [1000 x i32]* %10, i64 0, i64 %53
  %55 = load i32, i32* %54, align 4
  %56 = mul nsw i32 %55, 10
  %57 = load i32, i32* %2, align 4
  %58 = sext i32 %57 to i64
  %59 = getelementptr inbounds [10000 x i8], [10000 x i8]* %11, i64 0, i64 %58
  %60 = load i8, i8* %59, align 1
  %61 = sext i8 %60 to i32
  %62 = add nsw i32 %56, %61
  %63 = sub nsw i32 %62, 48
  %64 = load i32, i32* %3, align 4
  %65 = sext i32 %64 to i64
  %66 = getelementptr inbounds [1000 x i32], [1000 x i32]* %10, i64 0, i64 %65
  store i32 %63, i32* %66, align 4
  br label %67

67:                                               ; preds = %51, %39
  br label %71

68:                                               ; preds = %29, %22
  %69 = load i32, i32* %3, align 4
  %70 = add nsw i32 %69, 1
  store i32 %70, i32* %3, align 4
  br label %71

71:                                               ; preds = %68, %67
  %72 = load i32, i32* %2, align 4
  %73 = add nsw i32 %72, 1
  store i32 %73, i32* %2, align 4
  br label %15

74:                                               ; preds = %15
  %75 = load i32, i32* %3, align 4
  store i32 %75, i32* %9, align 4
  store i32 0, i32* %2, align 4
  br label %76

76:                                               ; preds = %144, %74
  %77 = load i32, i32* %2, align 4
  %78 = load i32, i32* %9, align 4
  %79 = icmp sle i32 %77, %78
  br i1 %79, label %80, label %147

80:                                               ; preds = %76
  store i32 0, i32* %6, align 4
  store i32 0, i32* %3, align 4
  br label %81

81:                                               ; preds = %127, %80
  %82 = load i32, i32* %3, align 4
  %83 = load i32, i32* %9, align 4
  %84 = icmp sle i32 %82, %83
  br i1 %84, label %85, label %130

85:                                               ; preds = %81
  %86 = load i32, i32* %3, align 4
  %87 = sext i32 %86 to i64
  %88 = getelementptr inbounds [1000 x i32], [1000 x i32]* %10, i64 0, i64 %87
  %89 = load i32, i32* %88, align 4
  %90 = load i32, i32* %2, align 4
  %91 = sext i32 %90 to i64
  %92 = getelementptr inbounds [1000 x i32], [1000 x i32]* %10, i64 0, i64 %91
  %93 = load i32, i32* %92, align 4
  %94 = icmp sgt i32 %89, %93
  br i1 %94, label %95, label %105

95:                                               ; preds = %85
  %96 = load i32, i32* %6, align 4
  %97 = icmp eq i32 %96, 0
  br i1 %97, label %98, label %105

98:                                               ; preds = %95
  %99 = load i32, i32* %3, align 4
  %100 = sext i32 %99 to i64
  %101 = getelementptr inbounds [1000 x i32], [1000 x i32]* %10, i64 0, i64 %100
  %102 = load i32, i32* %101, align 4
  store i32 %102, i32* %7, align 4
  %103 = load i32, i32* %6, align 4
  %104 = add nsw i32 %103, 1
  store i32 %104, i32* %6, align 4
  br label %126

105:                                              ; preds = %95, %85
  %106 = load i32, i32* %3, align 4
  %107 = sext i32 %106 to i64
  %108 = getelementptr inbounds [1000 x i32], [1000 x i32]* %10, i64 0, i64 %107
  %109 = load i32, i32* %108, align 4
  %110 = load i32, i32* %2, align 4
  %111 = sext i32 %110 to i64
  %112 = getelementptr inbounds [1000 x i32], [1000 x i32]* %10, i64 0, i64 %111
  %113 = load i32, i32* %112, align 4
  %114 = icmp sgt i32 %109, %113
  br i1 %114, label %115, label %125

115:                                              ; preds = %105
  %116 = load i32, i32* %3, align 4
  %117 = sext i32 %116 to i64
  %118 = getelementptr inbounds [1000 x i32], [1000 x i32]* %10, i64 0, i64 %117
  %119 = load i32, i32* %118, align 4
  %120 = load i32, i32* %7, align 4
  %121 = icmp ne i32 %119, %120
  br i1 %121, label %122, label %125

122:                                              ; preds = %115
  %123 = load i32, i32* %6, align 4
  %124 = add nsw i32 %123, 1
  store i32 %124, i32* %6, align 4
  br label %125

125:                                              ; preds = %122, %115, %105
  br label %126

126:                                              ; preds = %125, %98
  br label %127

127:                                              ; preds = %126
  %128 = load i32, i32* %3, align 4
  %129 = add nsw i32 %128, 1
  store i32 %129, i32* %3, align 4
  br label %81

130:                                              ; preds = %81
  %131 = load i32, i32* %6, align 4
  %132 = icmp eq i32 %131, 1
  br i1 %132, label %133, label %143

133:                                              ; preds = %130
  %134 = load i32, i32* %2, align 4
  %135 = sext i32 %134 to i64
  %136 = getelementptr inbounds [1000 x i32], [1000 x i32]* %10, i64 0, i64 %135
  %137 = load i32, i32* %136, align 4
  %138 = call i32 (i8*, ...) @printf(i8* getelementptr inbounds ([3 x i8], [3 x i8]* @.str, i64 0, i64 0), i32 %137)
  %139 = load i32, i32* %2, align 4
  %140 = sext i32 %139 to i64
  %141 = getelementptr inbounds [1000 x i32], [1000 x i32]* %10, i64 0, i64 %140
  %142 = load i32, i32* %141, align 4
  store i32 %142, i32* %8, align 4
  br label %147

143:                                              ; preds = %130
  br label %144

144:                                              ; preds = %143
  %145 = load i32, i32* %2, align 4
  %146 = add nsw i32 %145, 1
  store i32 %146, i32* %2, align 4
  br label %76

147:                                              ; preds = %133, %76
  %148 = load i32, i32* %8, align 4
  %149 = icmp eq i32 %148, 0
  br i1 %149, label %150, label %152

150:                                              ; preds = %147
  %151 = call i32 (i8*, ...) @printf(i8* getelementptr inbounds ([3 x i8], [3 x i8]* @.str.1, i64 0, i64 0))
  br label %152

152:                                              ; preds = %150, %147
  %153 = load i32, i32* %1, align 4
  ret i32 %153
}

; Function Attrs: argmemonly nounwind willreturn
declare void @llvm.memset.p0i8.i64(i8* nocapture writeonly, i8, i64, i1 immarg) #1

declare dso_local i32 @gets(...) #2

declare dso_local i32 @printf(i8*, ...) #2


!llvm.module.flags = !{!0}
!llvm.ident = !{!1}

!0 = !{i32 1, !"wchar_size", i32 4}
!1 = !{!"clang version 10.0.0-4ubuntu1 "}
